target datalayout = "e-m:e-p270:32:32-p271:32:32-p272:64:64-i64:64-i128:128-f80:128-n8:16:32:64-S128"
target triple = "x86_64-pc-linux-gnu"

%"class.llvm::Value" = type { i8, i8, i16, i32, ptr, ptr }

; Function Attrs: mustprogress nounwind willreturn memory(read) uwtable
define dso_local noundef zeroext i1 @_ZNK4llvm11Instruction13isIdenticalToEPKS0_(ptr noundef nonnull align 8 dereferenceable(72) %0, ptr noundef %1) #4 align 2 {
  %3 = alloca ptr, align 8
  %4 = alloca ptr, align 8
  store ptr %0, ptr %3, align 8
  store ptr %1, ptr %4, align 8
  %5 = load ptr, ptr %3, align 8
  %6 = load ptr, ptr %4, align 8
  %7 = call noundef zeroext i1 @_ZNK4llvm11Instruction24isIdenticalToWhenDefinedEPKS0_(ptr noundef nonnull align 8 dereferenceable(72) %5, ptr noundef %6) #10
  br i1 %7, label %8, label %19

8:                                                ; preds = %2
  %9 = getelementptr inbounds nuw %"class.llvm::Value", ptr %5, i32 0, i32 1
  %10 = load i8, ptr %9, align 1
  %11 = lshr i8 %10, 1
  %12 = zext i8 %11 to i32
  %13 = load ptr, ptr %4, align 8
  %14 = getelementptr inbounds nuw %"class.llvm::Value", ptr %13, i32 0, i32 1
  %15 = load i8, ptr %14, align 1
  %16 = lshr i8 %15, 1
  %17 = zext i8 %16 to i32
  %18 = icmp eq i32 %12, %17
  br label %19

19:                                               ; preds = %8, %2
  %20 = phi i1 [ false, %2 ], [ %18, %8 ]
  ret i1 %20
}