; Function Attrs: mustprogress nofree nounwind willreturn memory(read) uwtable
define dso_local noundef zeroext i1 @_ZNK4llvm11Instruction13isIdenticalToEPKS0_(ptr noundef nonnull align 8 dereferenceable(72) %0, ptr noundef %1) local_unnamed_addr #8 align 2 {
  %3 = tail call noundef zeroext i1 @_ZNK4llvm11Instruction24isIdenticalToWhenDefinedEPKS0_(ptr noundef nonnull align 8 dereferenceable(72) %0, ptr noundef %1) #22
  br i1 %3, label %4, label %10

4:                                                ; preds = %2
  %5 = getelementptr inbounds nuw i8, ptr %0, i64 1
  %6 = load i8, ptr %5, align 1
  %7 = getelementptr inbounds nuw i8, ptr %1, i64 1
  %8 = load i8, ptr %7, align 1
  %.unshifted = xor i8 %8, %6
  %9 = icmp ult i8 %.unshifted, 2
  br label %10

10:                                               ; preds = %4, %2
  %11 = phi i1 [ false, %2 ], [ %9, %4 ]
  ret i1 %11
}